

Microchip Technology PIC LITE Macro Assembler V1.44 build -154322312 
                                                                                               Sat Jul 21 23:52:41 2018

Microchip Technology Omniscient Code Generator v1.44 (Free mode) build 201709140600
     1                           	processor	16F18855
     2                           	opt	pw 120
     3                           	opt	lm
     4                           	psect	idataBANK0,global,class=CODE,delta=2
     5                           	psect	cinit,global,class=CODE,merge=1,delta=2
     6                           	psect	bssBANK0,global,class=BANK0,space=1,delta=1
     7                           	psect	dataBANK0,global,class=BANK0,space=1,delta=1
     8                           	psect	inittext,global,class=CODE,delta=2
     9                           	psect	cstackCOMMON,global,class=COMMON,space=1,delta=1
    10                           	psect	maintext,global,class=CODE,merge=1,split=1,delta=2
    11                           	psect	text1,local,class=CODE,merge=1,delta=2
    12                           	psect	text2,local,class=CODE,merge=1,inline,delta=2
    13                           	psect	text3,local,class=CODE,merge=1,delta=2
    14                           	psect	text4,local,class=CODE,merge=1,delta=2,group=2
    15                           	psect	text5,local,class=CODE,merge=1,delta=2,group=2
    16                           	dabs	1,0x7E,2
    17  0000                     
    18                           ; Version 1.44
    19                           ; Generated 14/09/2017 GMT
    20                           ; 
    21                           ; Copyright © 2017, Microchip Technology Inc. and its subsidiaries ("Microchip")
    22                           ; All rights reserved.
    23                           ; 
    24                           ; This software is developed by Microchip Technology Inc. and its subsidiaries ("Microch
      +                          ip").
    25                           ; 
    26                           ; Redistribution and use in source and binary forms, with or without modification, are
    27                           ; permitted provided that the following conditions are met:
    28                           ; 
    29                           ;     1. Redistributions of source code must retain the above copyright notice, this lis
      +                          t of
    30                           ;        conditions and the following disclaimer.
    31                           ; 
    32                           ;     2. Redistributions in binary form must reproduce the above copyright notice, this 
      +                          list
    33                           ;        of conditions and the following disclaimer in the documentation and/or other
    34                           ;        materials provided with the distribution.
    35                           ; 
    36                           ;     3. Microchip's name may not be used to endorse or promote products derived from th
      +                          is
    37                           ;        software without specific prior written permission.
    38                           ; 
    39                           ; THIS SOFTWARE IS PROVIDED BY MICROCHIP "AS IS" AND ANY EXPRESS OR IMPLIED WARRANTIES,
    40                           ; INCLUDING, BUT NOT LIMITED TO, THE IMPLIED WARRANTIES OF MERCHANTABILITY AND FITNESS F
      +                          OR
    41                           ; PURPOSE ARE DISCLAIMED.  IN NO EVENT SHALL MICROCHIP BE LIABLE FOR ANY DIRECT, INDIREC
      +                          T,
    42                           ; INCIDENTAL, SPECIAL, EXEMPLARY, OR CONSEQUENTIAL DAMAGES (INCLUDING BUT NOT LIMITED TO
    43                           ; PROCUREMENT OF SUBSTITUTE GOODS OR SERVICES; LOSS OF USE, DATA OR PROFITS; OR BUSINESS
    44                           ; INTERRUPTION) HOWSOEVER CAUSED AND ON ANY THEORY OF LIABILITY, WHETHER IN CONTRACT, ST
      +                          RICT
    45                           ; LIABILITY, OR TORT (INCLUDING NEGLIGENCE OR OTHERWISE) ARISING IN ANY WAY OUT OF THE U
      +                          SE OF
    46                           ; THIS SOFTWARE, EVEN IF ADVISED OF THE POSSIBILITY OF SUCH DAMAGE.
    47                           ; 
    48                           ; 
    49                           ; Code-generator required, PIC16F18855 Definitions
    50                           ; 
    51                           ; SFR Addresses
    52  0000                     	;# 
    53  0001                     	;# 
    54  0002                     	;# 
    55  0003                     	;# 
    56  0004                     	;# 
    57  0005                     	;# 
    58  0006                     	;# 
    59  0007                     	;# 
    60  0008                     	;# 
    61  0009                     	;# 
    62  000A                     	;# 
    63  000B                     	;# 
    64  000C                     	;# 
    65  000D                     	;# 
    66  000E                     	;# 
    67  0010                     	;# 
    68  0011                     	;# 
    69  0012                     	;# 
    70  0013                     	;# 
    71  0016                     	;# 
    72  0017                     	;# 
    73  0018                     	;# 
    74  001C                     	;# 
    75  001C                     	;# 
    76  001D                     	;# 
    77  001D                     	;# 
    78  001E                     	;# 
    79  001F                     	;# 
    80  008C                     	;# 
    81  008C                     	;# 
    82  008D                     	;# 
    83  008E                     	;# 
    84  008E                     	;# 
    85  008F                     	;# 
    86  0090                     	;# 
    87  0090                     	;# 
    88  0091                     	;# 
    89  0093                     	;# 
    90  0094                     	;# 
    91  0095                     	;# 
    92  0096                     	;# 
    93  0097                     	;# 
    94  0098                     	;# 
    95  0099                     	;# 
    96  009A                     	;# 
    97  009B                     	;# 
    98  009C                     	;# 
    99  009D                     	;# 
   100  009E                     	;# 
   101  010C                     	;# 
   102  010D                     	;# 
   103  010E                     	;# 
   104  010E                     	;# 
   105  010F                     	;# 
   106  0110                     	;# 
   107  0110                     	;# 
   108  0111                     	;# 
   109  0112                     	;# 
   110  0112                     	;# 
   111  0113                     	;# 
   112  0114                     	;# 
   113  0114                     	;# 
   114  0115                     	;# 
   115  0116                     	;# 
   116  0116                     	;# 
   117  0117                     	;# 
   118  0119                     	;# 
   119  0119                     	;# 
   120  0119                     	;# 
   121  011A                     	;# 
   122  011A                     	;# 
   123  011A                     	;# 
   124  011B                     	;# 
   125  011B                     	;# 
   126  011B                     	;# 
   127  011B                     	;# 
   128  011B                     	;# 
   129  011C                     	;# 
   130  011C                     	;# 
   131  011C                     	;# 
   132  011D                     	;# 
   133  011D                     	;# 
   134  011D                     	;# 
   135  011E                     	;# 
   136  011E                     	;# 
   137  011E                     	;# 
   138  011F                     	;# 
   139  011F                     	;# 
   140  011F                     	;# 
   141  011F                     	;# 
   142  011F                     	;# 
   143  018C                     	;# 
   144  018D                     	;# 
   145  018E                     	;# 
   146  018F                     	;# 
   147  0190                     	;# 
   148  0191                     	;# 
   149  0192                     	;# 
   150  0196                     	;# 
   151  0197                     	;# 
   152  0198                     	;# 
   153  0199                     	;# 
   154  019A                     	;# 
   155  019B                     	;# 
   156  019C                     	;# 
   157  020C                     	;# 
   158  020C                     	;# 
   159  020D                     	;# 
   160  020E                     	;# 
   161  020F                     	;# 
   162  020F                     	;# 
   163  0210                     	;# 
   164  0210                     	;# 
   165  0211                     	;# 
   166  0211                     	;# 
   167  0212                     	;# 
   168  0212                     	;# 
   169  0213                     	;# 
   170  0214                     	;# 
   171  0215                     	;# 
   172  0215                     	;# 
   173  0216                     	;# 
   174  0216                     	;# 
   175  0217                     	;# 
   176  0217                     	;# 
   177  0218                     	;# 
   178  0218                     	;# 
   179  0219                     	;# 
   180  021A                     	;# 
   181  021B                     	;# 
   182  021B                     	;# 
   183  021C                     	;# 
   184  021C                     	;# 
   185  021D                     	;# 
   186  021D                     	;# 
   187  021E                     	;# 
   188  021F                     	;# 
   189  028C                     	;# 
   190  028C                     	;# 
   191  028D                     	;# 
   192  028D                     	;# 
   193  028E                     	;# 
   194  028F                     	;# 
   195  0290                     	;# 
   196  0290                     	;# 
   197  0291                     	;# 
   198  0292                     	;# 
   199  0292                     	;# 
   200  0293                     	;# 
   201  0293                     	;# 
   202  0294                     	;# 
   203  0295                     	;# 
   204  0296                     	;# 
   205  0296                     	;# 
   206  0297                     	;# 
   207  0298                     	;# 
   208  0298                     	;# 
   209  0299                     	;# 
   210  0299                     	;# 
   211  029A                     	;# 
   212  029B                     	;# 
   213  029C                     	;# 
   214  029C                     	;# 
   215  029D                     	;# 
   216  030C                     	;# 
   217  030C                     	;# 
   218  030D                     	;# 
   219  030E                     	;# 
   220  030F                     	;# 
   221  0310                     	;# 
   222  0310                     	;# 
   223  0311                     	;# 
   224  0312                     	;# 
   225  0313                     	;# 
   226  0314                     	;# 
   227  0314                     	;# 
   228  0315                     	;# 
   229  0316                     	;# 
   230  0317                     	;# 
   231  0318                     	;# 
   232  0318                     	;# 
   233  0319                     	;# 
   234  031A                     	;# 
   235  031B                     	;# 
   236  031C                     	;# 
   237  031C                     	;# 
   238  031D                     	;# 
   239  031E                     	;# 
   240  031F                     	;# 
   241  038C                     	;# 
   242  038D                     	;# 
   243  038E                     	;# 
   244  0390                     	;# 
   245  0391                     	;# 
   246  0392                     	;# 
   247  040C                     	;# 
   248  040D                     	;# 
   249  040E                     	;# 
   250  040F                     	;# 
   251  0410                     	;# 
   252  0411                     	;# 
   253  0416                     	;# 
   254  0416                     	;# 
   255  0417                     	;# 
   256  0418                     	;# 
   257  0418                     	;# 
   258  0419                     	;# 
   259  041A                     	;# 
   260  041A                     	;# 
   261  041B                     	;# 
   262  041C                     	;# 
   263  041C                     	;# 
   264  041D                     	;# 
   265  041E                     	;# 
   266  041F                     	;# 
   267  048C                     	;# 
   268  048C                     	;# 
   269  048D                     	;# 
   270  048E                     	;# 
   271  048F                     	;# 
   272  048F                     	;# 
   273  0490                     	;# 
   274  0491                     	;# 
   275  0492                     	;# 
   276  0492                     	;# 
   277  0493                     	;# 
   278  0494                     	;# 
   279  0495                     	;# 
   280  0495                     	;# 
   281  0496                     	;# 
   282  0497                     	;# 
   283  0498                     	;# 
   284  0499                     	;# 
   285  049A                     	;# 
   286  049B                     	;# 
   287  049C                     	;# 
   288  049D                     	;# 
   289  050C                     	;# 
   290  050C                     	;# 
   291  050D                     	;# 
   292  050E                     	;# 
   293  050F                     	;# 
   294  050F                     	;# 
   295  0510                     	;# 
   296  0511                     	;# 
   297  0512                     	;# 
   298  0512                     	;# 
   299  0513                     	;# 
   300  0514                     	;# 
   301  0515                     	;# 
   302  0515                     	;# 
   303  0516                     	;# 
   304  0517                     	;# 
   305  0518                     	;# 
   306  0519                     	;# 
   307  051A                     	;# 
   308  051B                     	;# 
   309  051C                     	;# 
   310  051D                     	;# 
   311  058C                     	;# 
   312  058C                     	;# 
   313  058D                     	;# 
   314  058E                     	;# 
   315  058F                     	;# 
   316  058F                     	;# 
   317  0590                     	;# 
   318  0591                     	;# 
   319  0592                     	;# 
   320  0593                     	;# 
   321  060C                     	;# 
   322  060D                     	;# 
   323  060E                     	;# 
   324  060F                     	;# 
   325  0610                     	;# 
   326  0611                     	;# 
   327  0612                     	;# 
   328  0613                     	;# 
   329  0614                     	;# 
   330  0616                     	;# 
   331  0617                     	;# 
   332  0618                     	;# 
   333  0619                     	;# 
   334  061A                     	;# 
   335  061B                     	;# 
   336  061C                     	;# 
   337  061D                     	;# 
   338  061E                     	;# 
   339  068C                     	;# 
   340  068D                     	;# 
   341  068E                     	;# 
   342  068F                     	;# 
   343  0690                     	;# 
   344  0691                     	;# 
   345  0692                     	;# 
   346  0693                     	;# 
   347  0694                     	;# 
   348  070C                     	;# 
   349  070D                     	;# 
   350  070E                     	;# 
   351  070F                     	;# 
   352  0710                     	;# 
   353  0711                     	;# 
   354  0712                     	;# 
   355  0713                     	;# 
   356  0714                     	;# 
   357  0716                     	;# 
   358  0717                     	;# 
   359  0718                     	;# 
   360  0719                     	;# 
   361  071A                     	;# 
   362  071B                     	;# 
   363  071C                     	;# 
   364  071D                     	;# 
   365  071E                     	;# 
   366  0796                     	;# 
   367  0797                     	;# 
   368  0798                     	;# 
   369  0799                     	;# 
   370  079A                     	;# 
   371  079B                     	;# 
   372  080C                     	;# 
   373  080D                     	;# 
   374  080E                     	;# 
   375  080F                     	;# 
   376  0810                     	;# 
   377  0811                     	;# 
   378  0812                     	;# 
   379  0813                     	;# 
   380  0814                     	;# 
   381  081A                     	;# 
   382  081B                     	;# 
   383  081C                     	;# 
   384  081D                     	;# 
   385  081E                     	;# 
   386  081F                     	;# 
   387  088C                     	;# 
   388  088D                     	;# 
   389  088E                     	;# 
   390  088F                     	;# 
   391  0890                     	;# 
   392  0891                     	;# 
   393  0892                     	;# 
   394  0893                     	;# 
   395  0895                     	;# 
   396  0896                     	;# 
   397  0897                     	;# 
   398  0898                     	;# 
   399  0899                     	;# 
   400  089A                     	;# 
   401  089B                     	;# 
   402  090C                     	;# 
   403  090E                     	;# 
   404  090F                     	;# 
   405  091F                     	;# 
   406  091F                     	;# 
   407  098F                     	;# 
   408  098F                     	;# 
   409  0990                     	;# 
   410  0991                     	;# 
   411  0992                     	;# 
   412  0993                     	;# 
   413  0994                     	;# 
   414  0995                     	;# 
   415  0996                     	;# 
   416  0997                     	;# 
   417  0E0F                     	;# 
   418  0E10                     	;# 
   419  0E11                     	;# 
   420  0E12                     	;# 
   421  0E13                     	;# 
   422  0E14                     	;# 
   423  0E15                     	;# 
   424  0E16                     	;# 
   425  0E17                     	;# 
   426  0E18                     	;# 
   427  0E19                     	;# 
   428  0E1A                     	;# 
   429  0E1B                     	;# 
   430  0E1C                     	;# 
   431  0E1D                     	;# 
   432  0E1E                     	;# 
   433  0E1F                     	;# 
   434  0E20                     	;# 
   435  0E21                     	;# 
   436  0E22                     	;# 
   437  0E23                     	;# 
   438  0E24                     	;# 
   439  0E25                     	;# 
   440  0E26                     	;# 
   441  0E27                     	;# 
   442  0E28                     	;# 
   443  0E29                     	;# 
   444  0E2A                     	;# 
   445  0E2B                     	;# 
   446  0E2C                     	;# 
   447  0E2D                     	;# 
   448  0E2E                     	;# 
   449  0E2F                     	;# 
   450  0E30                     	;# 
   451  0E31                     	;# 
   452  0E32                     	;# 
   453  0E33                     	;# 
   454  0E34                     	;# 
   455  0E35                     	;# 
   456  0E36                     	;# 
   457  0E37                     	;# 
   458  0E8F                     	;# 
   459  0E90                     	;# 
   460  0E91                     	;# 
   461  0E92                     	;# 
   462  0E93                     	;# 
   463  0E94                     	;# 
   464  0E95                     	;# 
   465  0E96                     	;# 
   466  0E97                     	;# 
   467  0E9C                     	;# 
   468  0E9D                     	;# 
   469  0E9E                     	;# 
   470  0EA1                     	;# 
   471  0EA2                     	;# 
   472  0EA3                     	;# 
   473  0EA4                     	;# 
   474  0EA5                     	;# 
   475  0EA9                     	;# 
   476  0EAA                     	;# 
   477  0EAB                     	;# 
   478  0EAC                     	;# 
   479  0EB1                     	;# 
   480  0EB2                     	;# 
   481  0EB3                     	;# 
   482  0EB8                     	;# 
   483  0EB9                     	;# 
   484  0EBA                     	;# 
   485  0EBB                     	;# 
   486  0EBC                     	;# 
   487  0EBD                     	;# 
   488  0EBE                     	;# 
   489  0EC3                     	;# 
   490  0EC5                     	;# 
   491  0EC6                     	;# 
   492  0EC7                     	;# 
   493  0EC8                     	;# 
   494  0EC9                     	;# 
   495  0ECA                     	;# 
   496  0ECB                     	;# 
   497  0ECC                     	;# 
   498  0F10                     	;# 
   499  0F11                     	;# 
   500  0F12                     	;# 
   501  0F13                     	;# 
   502  0F14                     	;# 
   503  0F15                     	;# 
   504  0F16                     	;# 
   505  0F17                     	;# 
   506  0F18                     	;# 
   507  0F19                     	;# 
   508  0F1A                     	;# 
   509  0F1B                     	;# 
   510  0F1C                     	;# 
   511  0F1D                     	;# 
   512  0F1E                     	;# 
   513  0F1F                     	;# 
   514  0F20                     	;# 
   515  0F21                     	;# 
   516  0F22                     	;# 
   517  0F23                     	;# 
   518  0F24                     	;# 
   519  0F25                     	;# 
   520  0F26                     	;# 
   521  0F27                     	;# 
   522  0F38                     	;# 
   523  0F39                     	;# 
   524  0F3A                     	;# 
   525  0F3B                     	;# 
   526  0F3C                     	;# 
   527  0F3D                     	;# 
   528  0F3E                     	;# 
   529  0F3F                     	;# 
   530  0F40                     	;# 
   531  0F41                     	;# 
   532  0F43                     	;# 
   533  0F44                     	;# 
   534  0F45                     	;# 
   535  0F46                     	;# 
   536  0F47                     	;# 
   537  0F48                     	;# 
   538  0F49                     	;# 
   539  0F4A                     	;# 
   540  0F4B                     	;# 
   541  0F4C                     	;# 
   542  0F4E                     	;# 
   543  0F4F                     	;# 
   544  0F50                     	;# 
   545  0F51                     	;# 
   546  0F52                     	;# 
   547  0F53                     	;# 
   548  0F54                     	;# 
   549  0F55                     	;# 
   550  0F56                     	;# 
   551  0F57                     	;# 
   552  0F65                     	;# 
   553  0F68                     	;# 
   554  0F69                     	;# 
   555  0F6A                     	;# 
   556  0F6B                     	;# 
   557  0FE4                     	;# 
   558  0FE5                     	;# 
   559  0FE6                     	;# 
   560  0FE7                     	;# 
   561  0FE8                     	;# 
   562  0FE9                     	;# 
   563  0FEA                     	;# 
   564  0FEB                     	;# 
   565  0FED                     	;# 
   566  0FEE                     	;# 
   567  0FEF                     	;# 
   568  0000                     	;# 
   569  0001                     	;# 
   570  0002                     	;# 
   571  0003                     	;# 
   572  0004                     	;# 
   573  0005                     	;# 
   574  0006                     	;# 
   575  0007                     	;# 
   576  0008                     	;# 
   577  0009                     	;# 
   578  000A                     	;# 
   579  000B                     	;# 
   580  000C                     	;# 
   581  000D                     	;# 
   582  000E                     	;# 
   583  0010                     	;# 
   584  0011                     	;# 
   585  0012                     	;# 
   586  0013                     	;# 
   587  0016                     	;# 
   588  0017                     	;# 
   589  0018                     	;# 
   590  001C                     	;# 
   591  001C                     	;# 
   592  001D                     	;# 
   593  001D                     	;# 
   594  001E                     	;# 
   595  001F                     	;# 
   596  008C                     	;# 
   597  008C                     	;# 
   598  008D                     	;# 
   599  008E                     	;# 
   600  008E                     	;# 
   601  008F                     	;# 
   602  0090                     	;# 
   603  0090                     	;# 
   604  0091                     	;# 
   605  0093                     	;# 
   606  0094                     	;# 
   607  0095                     	;# 
   608  0096                     	;# 
   609  0097                     	;# 
   610  0098                     	;# 
   611  0099                     	;# 
   612  009A                     	;# 
   613  009B                     	;# 
   614  009C                     	;# 
   615  009D                     	;# 
   616  009E                     	;# 
   617  010C                     	;# 
   618  010D                     	;# 
   619  010E                     	;# 
   620  010E                     	;# 
   621  010F                     	;# 
   622  0110                     	;# 
   623  0110                     	;# 
   624  0111                     	;# 
   625  0112                     	;# 
   626  0112                     	;# 
   627  0113                     	;# 
   628  0114                     	;# 
   629  0114                     	;# 
   630  0115                     	;# 
   631  0116                     	;# 
   632  0116                     	;# 
   633  0117                     	;# 
   634  0119                     	;# 
   635  0119                     	;# 
   636  0119                     	;# 
   637  011A                     	;# 
   638  011A                     	;# 
   639  011A                     	;# 
   640  011B                     	;# 
   641  011B                     	;# 
   642  011B                     	;# 
   643  011B                     	;# 
   644  011B                     	;# 
   645  011C                     	;# 
   646  011C                     	;# 
   647  011C                     	;# 
   648  011D                     	;# 
   649  011D                     	;# 
   650  011D                     	;# 
   651  011E                     	;# 
   652  011E                     	;# 
   653  011E                     	;# 
   654  011F                     	;# 
   655  011F                     	;# 
   656  011F                     	;# 
   657  011F                     	;# 
   658  011F                     	;# 
   659  018C                     	;# 
   660  018D                     	;# 
   661  018E                     	;# 
   662  018F                     	;# 
   663  0190                     	;# 
   664  0191                     	;# 
   665  0192                     	;# 
   666  0196                     	;# 
   667  0197                     	;# 
   668  0198                     	;# 
   669  0199                     	;# 
   670  019A                     	;# 
   671  019B                     	;# 
   672  019C                     	;# 
   673  020C                     	;# 
   674  020C                     	;# 
   675  020D                     	;# 
   676  020E                     	;# 
   677  020F                     	;# 
   678  020F                     	;# 
   679  0210                     	;# 
   680  0210                     	;# 
   681  0211                     	;# 
   682  0211                     	;# 
   683  0212                     	;# 
   684  0212                     	;# 
   685  0213                     	;# 
   686  0214                     	;# 
   687  0215                     	;# 
   688  0215                     	;# 
   689  0216                     	;# 
   690  0216                     	;# 
   691  0217                     	;# 
   692  0217                     	;# 
   693  0218                     	;# 
   694  0218                     	;# 
   695  0219                     	;# 
   696  021A                     	;# 
   697  021B                     	;# 
   698  021B                     	;# 
   699  021C                     	;# 
   700  021C                     	;# 
   701  021D                     	;# 
   702  021D                     	;# 
   703  021E                     	;# 
   704  021F                     	;# 
   705  028C                     	;# 
   706  028C                     	;# 
   707  028D                     	;# 
   708  028D                     	;# 
   709  028E                     	;# 
   710  028F                     	;# 
   711  0290                     	;# 
   712  0290                     	;# 
   713  0291                     	;# 
   714  0292                     	;# 
   715  0292                     	;# 
   716  0293                     	;# 
   717  0293                     	;# 
   718  0294                     	;# 
   719  0295                     	;# 
   720  0296                     	;# 
   721  0296                     	;# 
   722  0297                     	;# 
   723  0298                     	;# 
   724  0298                     	;# 
   725  0299                     	;# 
   726  0299                     	;# 
   727  029A                     	;# 
   728  029B                     	;# 
   729  029C                     	;# 
   730  029C                     	;# 
   731  029D                     	;# 
   732  030C                     	;# 
   733  030C                     	;# 
   734  030D                     	;# 
   735  030E                     	;# 
   736  030F                     	;# 
   737  0310                     	;# 
   738  0310                     	;# 
   739  0311                     	;# 
   740  0312                     	;# 
   741  0313                     	;# 
   742  0314                     	;# 
   743  0314                     	;# 
   744  0315                     	;# 
   745  0316                     	;# 
   746  0317                     	;# 
   747  0318                     	;# 
   748  0318                     	;# 
   749  0319                     	;# 
   750  031A                     	;# 
   751  031B                     	;# 
   752  031C                     	;# 
   753  031C                     	;# 
   754  031D                     	;# 
   755  031E                     	;# 
   756  031F                     	;# 
   757  038C                     	;# 
   758  038D                     	;# 
   759  038E                     	;# 
   760  0390                     	;# 
   761  0391                     	;# 
   762  0392                     	;# 
   763  040C                     	;# 
   764  040D                     	;# 
   765  040E                     	;# 
   766  040F                     	;# 
   767  0410                     	;# 
   768  0411                     	;# 
   769  0416                     	;# 
   770  0416                     	;# 
   771  0417                     	;# 
   772  0418                     	;# 
   773  0418                     	;# 
   774  0419                     	;# 
   775  041A                     	;# 
   776  041A                     	;# 
   777  041B                     	;# 
   778  041C                     	;# 
   779  041C                     	;# 
   780  041D                     	;# 
   781  041E                     	;# 
   782  041F                     	;# 
   783  048C                     	;# 
   784  048C                     	;# 
   785  048D                     	;# 
   786  048E                     	;# 
   787  048F                     	;# 
   788  048F                     	;# 
   789  0490                     	;# 
   790  0491                     	;# 
   791  0492                     	;# 
   792  0492                     	;# 
   793  0493                     	;# 
   794  0494                     	;# 
   795  0495                     	;# 
   796  0495                     	;# 
   797  0496                     	;# 
   798  0497                     	;# 
   799  0498                     	;# 
   800  0499                     	;# 
   801  049A                     	;# 
   802  049B                     	;# 
   803  049C                     	;# 
   804  049D                     	;# 
   805  050C                     	;# 
   806  050C                     	;# 
   807  050D                     	;# 
   808  050E                     	;# 
   809  050F                     	;# 
   810  050F                     	;# 
   811  0510                     	;# 
   812  0511                     	;# 
   813  0512                     	;# 
   814  0512                     	;# 
   815  0513                     	;# 
   816  0514                     	;# 
   817  0515                     	;# 
   818  0515                     	;# 
   819  0516                     	;# 
   820  0517                     	;# 
   821  0518                     	;# 
   822  0519                     	;# 
   823  051A                     	;# 
   824  051B                     	;# 
   825  051C                     	;# 
   826  051D                     	;# 
   827  058C                     	;# 
   828  058C                     	;# 
   829  058D                     	;# 
   830  058E                     	;# 
   831  058F                     	;# 
   832  058F                     	;# 
   833  0590                     	;# 
   834  0591                     	;# 
   835  0592                     	;# 
   836  0593                     	;# 
   837  060C                     	;# 
   838  060D                     	;# 
   839  060E                     	;# 
   840  060F                     	;# 
   841  0610                     	;# 
   842  0611                     	;# 
   843  0612                     	;# 
   844  0613                     	;# 
   845  0614                     	;# 
   846  0616                     	;# 
   847  0617                     	;# 
   848  0618                     	;# 
   849  0619                     	;# 
   850  061A                     	;# 
   851  061B                     	;# 
   852  061C                     	;# 
   853  061D                     	;# 
   854  061E                     	;# 
   855  068C                     	;# 
   856  068D                     	;# 
   857  068E                     	;# 
   858  068F                     	;# 
   859  0690                     	;# 
   860  0691                     	;# 
   861  0692                     	;# 
   862  0693                     	;# 
   863  0694                     	;# 
   864  070C                     	;# 
   865  070D                     	;# 
   866  070E                     	;# 
   867  070F                     	;# 
   868  0710                     	;# 
   869  0711                     	;# 
   870  0712                     	;# 
   871  0713                     	;# 
   872  0714                     	;# 
   873  0716                     	;# 
   874  0717                     	;# 
   875  0718                     	;# 
   876  0719                     	;# 
   877  071A                     	;# 
   878  071B                     	;# 
   879  071C                     	;# 
   880  071D                     	;# 
   881  071E                     	;# 
   882  0796                     	;# 
   883  0797                     	;# 
   884  0798                     	;# 
   885  0799                     	;# 
   886  079A                     	;# 
   887  079B                     	;# 
   888  080C                     	;# 
   889  080D                     	;# 
   890  080E                     	;# 
   891  080F                     	;# 
   892  0810                     	;# 
   893  0811                     	;# 
   894  0812                     	;# 
   895  0813                     	;# 
   896  0814                     	;# 
   897  081A                     	;# 
   898  081B                     	;# 
   899  081C                     	;# 
   900  081D                     	;# 
   901  081E                     	;# 
   902  081F                     	;# 
   903  088C                     	;# 
   904  088D                     	;# 
   905  088E                     	;# 
   906  088F                     	;# 
   907  0890                     	;# 
   908  0891                     	;# 
   909  0892                     	;# 
   910  0893                     	;# 
   911  0895                     	;# 
   912  0896                     	;# 
   913  0897                     	;# 
   914  0898                     	;# 
   915  0899                     	;# 
   916  089A                     	;# 
   917  089B                     	;# 
   918  090C                     	;# 
   919  090E                     	;# 
   920  090F                     	;# 
   921  091F                     	;# 
   922  091F                     	;# 
   923  098F                     	;# 
   924  098F                     	;# 
   925  0990                     	;# 
   926  0991                     	;# 
   927  0992                     	;# 
   928  0993                     	;# 
   929  0994                     	;# 
   930  0995                     	;# 
   931  0996                     	;# 
   932  0997                     	;# 
   933  0E0F                     	;# 
   934  0E10                     	;# 
   935  0E11                     	;# 
   936  0E12                     	;# 
   937  0E13                     	;# 
   938  0E14                     	;# 
   939  0E15                     	;# 
   940  0E16                     	;# 
   941  0E17                     	;# 
   942  0E18                     	;# 
   943  0E19                     	;# 
   944  0E1A                     	;# 
   945  0E1B                     	;# 
   946  0E1C                     	;# 
   947  0E1D                     	;# 
   948  0E1E                     	;# 
   949  0E1F                     	;# 
   950  0E20                     	;# 
   951  0E21                     	;# 
   952  0E22                     	;# 
   953  0E23                     	;# 
   954  0E24                     	;# 
   955  0E25                     	;# 
   956  0E26                     	;# 
   957  0E27                     	;# 
   958  0E28                     	;# 
   959  0E29                     	;# 
   960  0E2A                     	;# 
   961  0E2B                     	;# 
   962  0E2C                     	;# 
   963  0E2D                     	;# 
   964  0E2E                     	;# 
   965  0E2F                     	;# 
   966  0E30                     	;# 
   967  0E31                     	;# 
   968  0E32                     	;# 
   969  0E33                     	;# 
   970  0E34                     	;# 
   971  0E35                     	;# 
   972  0E36                     	;# 
   973  0E37                     	;# 
   974  0E8F                     	;# 
   975  0E90                     	;# 
   976  0E91                     	;# 
   977  0E92                     	;# 
   978  0E93                     	;# 
   979  0E94                     	;# 
   980  0E95                     	;# 
   981  0E96                     	;# 
   982  0E97                     	;# 
   983  0E9C                     	;# 
   984  0E9D                     	;# 
   985  0E9E                     	;# 
   986  0EA1                     	;# 
   987  0EA2                     	;# 
   988  0EA3                     	;# 
   989  0EA4                     	;# 
   990  0EA5                     	;# 
   991  0EA9                     	;# 
   992  0EAA                     	;# 
   993  0EAB                     	;# 
   994  0EAC                     	;# 
   995  0EB1                     	;# 
   996  0EB2                     	;# 
   997  0EB3                     	;# 
   998  0EB8                     	;# 
   999  0EB9                     	;# 
  1000  0EBA                     	;# 
  1001  0EBB                     	;# 
  1002  0EBC                     	;# 
  1003  0EBD                     	;# 
  1004  0EBE                     	;# 
  1005  0EC3                     	;# 
  1006  0EC5                     	;# 
  1007  0EC6                     	;# 
  1008  0EC7                     	;# 
  1009  0EC8                     	;# 
  1010  0EC9                     	;# 
  1011  0ECA                     	;# 
  1012  0ECB                     	;# 
  1013  0ECC                     	;# 
  1014  0F10                     	;# 
  1015  0F11                     	;# 
  1016  0F12                     	;# 
  1017  0F13                     	;# 
  1018  0F14                     	;# 
  1019  0F15                     	;# 
  1020  0F16                     	;# 
  1021  0F17                     	;# 
  1022  0F18                     	;# 
  1023  0F19                     	;# 
  1024  0F1A                     	;# 
  1025  0F1B                     	;# 
  1026  0F1C                     	;# 
  1027  0F1D                     	;# 
  1028  0F1E                     	;# 
  1029  0F1F                     	;# 
  1030  0F20                     	;# 
  1031  0F21                     	;# 
  1032  0F22                     	;# 
  1033  0F23                     	;# 
  1034  0F24                     	;# 
  1035  0F25                     	;# 
  1036  0F26                     	;# 
  1037  0F27                     	;# 
  1038  0F38                     	;# 
  1039  0F39                     	;# 
  1040  0F3A                     	;# 
  1041  0F3B                     	;# 
  1042  0F3C                     	;# 
  1043  0F3D                     	;# 
  1044  0F3E                     	;# 
  1045  0F3F                     	;# 
  1046  0F40                     	;# 
  1047  0F41                     	;# 
  1048  0F43                     	;# 
  1049  0F44                     	;# 
  1050  0F45                     	;# 
  1051  0F46                     	;# 
  1052  0F47                     	;# 
  1053  0F48                     	;# 
  1054  0F49                     	;# 
  1055  0F4A                     	;# 
  1056  0F4B                     	;# 
  1057  0F4C                     	;# 
  1058  0F4E                     	;# 
  1059  0F4F                     	;# 
  1060  0F50                     	;# 
  1061  0F51                     	;# 
  1062  0F52                     	;# 
  1063  0F53                     	;# 
  1064  0F54                     	;# 
  1065  0F55                     	;# 
  1066  0F56                     	;# 
  1067  0F57                     	;# 
  1068  0F65                     	;# 
  1069  0F68                     	;# 
  1070  0F69                     	;# 
  1071  0F6A                     	;# 
  1072  0F6B                     	;# 
  1073  0FE4                     	;# 
  1074  0FE5                     	;# 
  1075  0FE6                     	;# 
  1076  0FE7                     	;# 
  1077  0FE8                     	;# 
  1078  0FE9                     	;# 
  1079  0FEA                     	;# 
  1080  0FEB                     	;# 
  1081  0FED                     	;# 
  1082  0FEE                     	;# 
  1083  0FEF                     	;# 
  1084                           
  1085                           	psect	idataBANK0
  1086  06AA                     __pidataBANK0:	
  1087                           
  1088                           ;initializer for _char_lookup
  1089  06AA  34BE               	retlw	190
  1090  06AB  3482               	retlw	130
  1091  06AC  3437               	retlw	55
  1092  06AD  34A7               	retlw	167
  1093  06AE  348B               	retlw	139
  1094  06AF  34AD               	retlw	173
  1095  06B0  34BD               	retlw	189
  1096  06B1  3486               	retlw	134
  1097  06B2  34BF               	retlw	191
  1098  06B3  34AF               	retlw	175
  1099  0018                     _LATC	set	24
  1100  0017                     _LATBbits	set	23
  1101  0012                     _TRISBbits	set	18
  1102  0013                     _TRISCbits	set	19
  1103  0011                     _TRISAbits	set	17
  1104  0016                     _LATAbits	set	22
  1105                           
  1106                           ; #config settings
  1107  0000                     
  1108                           	psect	cinit
  1109  07EE                     start_initialization:	
  1110  07EE                     __initialization:	
  1111                           
  1112                           ; Initialize objects allocated to BANK0
  1113  07EE  30AA               	movlw	low __pidataBANK0
  1114  07EF  0084               	movwf	4
  1115  07F0  3086               	movlw	(high __pidataBANK0)| (0+128)
  1116  07F1  0085               	movwf	5
  1117  07F2  3020               	movlw	low __pdataBANK0
  1118  07F3  0086               	movwf	6
  1119  07F4  3000               	movlw	high __pdataBANK0
  1120  07F5  0087               	movwf	7
  1121  07F6  300A               	movlw	10
  1122  07F7  3186  26A4         	fcall	init_ram
  1123                           
  1124                           ; Clear objects allocated to BANK0
  1125  07F9  01AA               	clrf	__pbssBANK0& (0+127)
  1126  07FA  01AB               	clrf	(__pbssBANK0+1)& (0+127)
  1127  07FB  01AC               	clrf	(__pbssBANK0+2)& (0+127)
  1128  07FC  01AD               	clrf	(__pbssBANK0+3)& (0+127)
  1129  07FD                     end_of_initialization:	
  1130                           ;End of C runtime variable initialization code
  1131                           
  1132  07FD                     __end_of__initialization:	
  1133  07FD  0020               	movlb	0
  1134  07FE  3186  2EB4         	ljmp	_main	;jump to C main() function
  1135                           
  1136                           	psect	bssBANK0
  1137  002A                     __pbssBANK0:	
  1138  002A                     _characters:	
  1139  002A                     	ds	4
  1140                           
  1141                           	psect	dataBANK0
  1142  0020                     __pdataBANK0:	
  1143  0020                     _char_lookup:	
  1144  0020                     	ds	10
  1145                           
  1146                           	psect	inittext
  1147  06A4                     init_ram:	
  1148  06A4  00FE               	movwf	126
  1149  06A5                     initloop:	
  1150  06A5  0012               	moviw fsr0++
  1151  06A6  001E               	movwi fsr1++
  1152  06A7  0BFE               	decfsz	126,f
  1153  06A8  2EA5               	goto	initloop
  1154  06A9  3400               	retlw	0
  1155                           
  1156                           	psect	cstackCOMMON
  1157  0070                     __pcstackCOMMON:	
  1158  0070                     ?_system_init:	
  1159  0070                     ??_system_init:	
  1160                           ; 1 bytes @ 0x0
  1161                           
  1162  0070                     ?_display_update:	
  1163                           ; 1 bytes @ 0x0
  1164                           
  1165  0070                     ??_display_update:	
  1166                           ; 1 bytes @ 0x0
  1167                           
  1168  0070                     ?_main:	
  1169                           ; 1 bytes @ 0x0
  1170                           
  1171  0070                     ?___lwdiv:	
  1172                           ; 1 bytes @ 0x0
  1173                           
  1174  0070                     ?___lwmod:	
  1175                           ; 2 bytes @ 0x0
  1176                           
  1177  0070                     ___lwdiv@divisor:	
  1178                           ; 2 bytes @ 0x0
  1179                           
  1180  0070                     ___lwmod@divisor:	
  1181                           ; 2 bytes @ 0x0
  1182                           
  1183                           
  1184                           ; 2 bytes @ 0x0
  1185  0070                     	ds	2
  1186  0072                     display_update@segment:	
  1187  0072                     ___lwdiv@dividend:	
  1188                           ; 1 bytes @ 0x2
  1189                           
  1190  0072                     ___lwmod@dividend:	
  1191                           ; 2 bytes @ 0x2
  1192                           
  1193                           
  1194                           ; 2 bytes @ 0x2
  1195  0072                     	ds	2
  1196  0074                     ??___lwdiv:	
  1197  0074                     ??___lwmod:	
  1198                           ; 1 bytes @ 0x4
  1199                           
  1200                           
  1201                           ; 1 bytes @ 0x4
  1202  0074                     	ds	1
  1203  0075                     ___lwmod@counter:	
  1204  0075                     ___lwdiv@quotient:	
  1205                           ; 1 bytes @ 0x5
  1206                           
  1207                           
  1208                           ; 2 bytes @ 0x5
  1209  0075                     	ds	2
  1210  0077                     ___lwdiv@counter:	
  1211                           
  1212                           ; 1 bytes @ 0x7
  1213  0077                     	ds	1
  1214  0078                     ?_display_set:	
  1215  0078                     display_set@value:	
  1216                           ; 1 bytes @ 0x8
  1217                           
  1218                           
  1219                           ; 2 bytes @ 0x8
  1220  0078                     	ds	2
  1221  007A                     ??_display_set:	
  1222                           
  1223                           ; 1 bytes @ 0xA
  1224  007A                     	ds	1
  1225  007B                     ??_main:	
  1226                           
  1227                           ; 1 bytes @ 0xB
  1228  007B                     	ds	1
  1229  007C                     main@cntr:	
  1230                           
  1231                           ; 1 bytes @ 0xC
  1232  007C                     	ds	1
  1233                           
  1234                           	psect	maintext
  1235  06B4                     __pmaintext:	
  1236 ;;
  1237 ;;Main: autosize = 0, tempsize = 1, incstack = 0, save=0
  1238 ;;
  1239 ;; *************** function _main *****************
  1240 ;; Defined at:
  1241 ;;		line 23 in file "main.c"
  1242 ;; Parameters:    Size  Location     Type
  1243 ;;		None
  1244 ;; Auto vars:     Size  Location     Type
  1245 ;;  cntr            1   12[COMMON] unsigned char 
  1246 ;; Return value:  Size  Location     Type
  1247 ;;                  1    wreg      void 
  1248 ;; Registers used:
  1249 ;;		wreg, fsr0l, fsr0h, fsr1l, fsr1h, status,2, status,0, pclath, cstack
  1250 ;; Tracked objects:
  1251 ;;		On entry : B1F/0
  1252 ;;		On exit  : 0/0
  1253 ;;		Unchanged: 0/0
  1254 ;; Data sizes:     COMMON   BANK0   BANK1   BANK2   BANK3   BANK4   BANK5   BANK6   BANK7   BANK8   BANK9  BANK10  BANK1
      +1  BANK12
  1255 ;;      Params:         0       0       0       0       0       0       0       0       0       0       0       0       
      +0       0
  1256 ;;      Locals:         1       0       0       0       0       0       0       0       0       0       0       0       
      +0       0
  1257 ;;      Temps:          1       0       0       0       0       0       0       0       0       0       0       0       
      +0       0
  1258 ;;      Totals:         2       0       0       0       0       0       0       0       0       0       0       0       
      +0       0
  1259 ;;Total ram usage:        2 bytes
  1260 ;; Hardware stack levels required when called:    2
  1261 ;; This function calls:
  1262 ;;		_display_set
  1263 ;;		_display_update
  1264 ;;		_system_init
  1265 ;; This function is called by:
  1266 ;;		Startup code after reset
  1267 ;; This function uses a non-reentrant model
  1268 ;;
  1269                           
  1270                           
  1271                           ;psect for function _main
  1272  06B4                     _main:	
  1273                           
  1274                           ;main.c: 25: uint8_t cntr;
  1275                           ;main.c: 28: system_init();
  1276                           
  1277                           ;incstack = 0
  1278                           ; Regs used in _main: [wreg-fsr1h+status,2+status,0+pclath+cstack]
  1279  06B4  3186  26CB  3186   	fcall	_system_init
  1280                           
  1281                           ;main.c: 30: LATAbits.LATA1 = 0;
  1282  06B7  0020               	movlb	0	; select bank0
  1283  06B8  1096               	bcf	22,1	;volatile
  1284                           
  1285                           ;main.c: 31: LATAbits.LATA2 = 0;
  1286  06B9  1116               	bcf	22,2	;volatile
  1287                           
  1288                           ;main.c: 32: LATAbits.LATA0 = 0;
  1289  06BA  1016               	bcf	22,0	;volatile
  1290                           
  1291                           ;main.c: 34: display_set(8901);
  1292  06BB  30C5               	movlw	197
  1293  06BC  00F8               	movwf	display_set@value
  1294  06BD  3022               	movlw	34
  1295  06BE  00F9               	movwf	display_set@value+1
  1296  06BF  3187  2771  3186   	fcall	_display_set
  1297  06C2                     l689:	
  1298                           ;main.c: 37: while(1)
  1299                           
  1300                           
  1301                           ;main.c: 38: {
  1302                           ;main.c: 40: display_update(cntr);
  1303  06C2  087C               	movf	main@cntr,w
  1304  06C3  3187  270F  3186   	fcall	_display_update
  1305                           
  1306                           ;main.c: 41: ++cntr;
  1307  06C6  3001               	movlw	1
  1308  06C7  00FB               	movwf	??_main
  1309  06C8  087B               	movf	??_main,w
  1310  06C9  07FC               	addwf	main@cntr,f
  1311  06CA  2EC2               	goto	l689
  1312  06CB                     __end_of_main:	
  1313                           
  1314                           	psect	text1
  1315  06CB                     __ptext1:	
  1316 ;; *************** function _system_init *****************
  1317 ;; Defined at:
  1318 ;;		line 71 in file "main.c"
  1319 ;; Parameters:    Size  Location     Type
  1320 ;;		None
  1321 ;; Auto vars:     Size  Location     Type
  1322 ;;		None
  1323 ;; Return value:  Size  Location     Type
  1324 ;;                  1    wreg      void 
  1325 ;; Registers used:
  1326 ;;		None
  1327 ;; Tracked objects:
  1328 ;;		On entry : 0/0
  1329 ;;		On exit  : 0/0
  1330 ;;		Unchanged: 0/0
  1331 ;; Data sizes:     COMMON   BANK0   BANK1   BANK2   BANK3   BANK4   BANK5   BANK6   BANK7   BANK8   BANK9  BANK10  BANK1
      +1  BANK12
  1332 ;;      Params:         0       0       0       0       0       0       0       0       0       0       0       0       
      +0       0
  1333 ;;      Locals:         0       0       0       0       0       0       0       0       0       0       0       0       
      +0       0
  1334 ;;      Temps:          0       0       0       0       0       0       0       0       0       0       0       0       
      +0       0
  1335 ;;      Totals:         0       0       0       0       0       0       0       0       0       0       0       0       
      +0       0
  1336 ;;Total ram usage:        0 bytes
  1337 ;; Hardware stack levels used:    1
  1338 ;; This function calls:
  1339 ;;		Nothing
  1340 ;; This function is called by:
  1341 ;;		_main
  1342 ;; This function uses a non-reentrant model
  1343 ;;
  1344                           
  1345                           
  1346                           ;psect for function _system_init
  1347  06CB                     _system_init:	
  1348                           
  1349                           ;main.c: 73: TRISAbits.TRISA1 = 0;
  1350                           
  1351                           ;incstack = 0
  1352                           ; Regs used in _system_init: []
  1353  06CB  0020               	movlb	0	; select bank0
  1354  06CC  1091               	bcf	17,1	;volatile
  1355                           
  1356                           ;main.c: 74: TRISAbits.TRISA2 = 0;
  1357  06CD  1111               	bcf	17,2	;volatile
  1358                           
  1359                           ;main.c: 75: TRISAbits.TRISA0 = 0;
  1360  06CE  1011               	bcf	17,0	;volatile
  1361                           
  1362                           ;main.c: 77: TRISAbits.TRISA3 = 1;
  1363  06CF  1591               	bsf	17,3	;volatile
  1364                           
  1365                           ;main.c: 78: TRISAbits.TRISA4 = 1;
  1366  06D0  1611               	bsf	17,4	;volatile
  1367                           
  1368                           ;main.c: 79: TRISAbits.TRISA4 = 1;
  1369  06D1  1611               	bsf	17,4	;volatile
  1370                           
  1371                           ;main.c: 81: TRISCbits.TRISC2 = 0;
  1372  06D2  1113               	bcf	19,2	;volatile
  1373                           
  1374                           ;main.c: 82: TRISCbits.TRISC1 = 0;
  1375  06D3  1093               	bcf	19,1	;volatile
  1376                           
  1377                           ;main.c: 83: TRISCbits.TRISC7 = 0;
  1378  06D4  1393               	bcf	19,7	;volatile
  1379                           
  1380                           ;main.c: 84: TRISCbits.TRISC5 = 0;
  1381  06D5  1293               	bcf	19,5	;volatile
  1382                           
  1383                           ;main.c: 85: TRISCbits.TRISC4 = 0;
  1384  06D6  1213               	bcf	19,4	;volatile
  1385                           
  1386                           ;main.c: 86: TRISCbits.TRISC3 = 0;
  1387  06D7  1193               	bcf	19,3	;volatile
  1388                           
  1389                           ;main.c: 87: TRISCbits.TRISC0 = 0;
  1390  06D8  1013               	bcf	19,0	;volatile
  1391                           
  1392                           ;main.c: 88: TRISCbits.TRISC6 = 0;
  1393  06D9  1313               	bcf	19,6	;volatile
  1394                           
  1395                           ;main.c: 89: TRISBbits.TRISB7 = 0;
  1396  06DA  1392               	bcf	18,7	;volatile
  1397                           
  1398                           ;main.c: 90: TRISBbits.TRISB6 = 0;
  1399  06DB  1312               	bcf	18,6	;volatile
  1400                           
  1401                           ;main.c: 91: TRISBbits.TRISB5 = 0;
  1402  06DC  1292               	bcf	18,5	;volatile
  1403                           
  1404                           ;main.c: 92: TRISBbits.TRISB4 = 0;
  1405  06DD  1212               	bcf	18,4	;volatile
  1406                           
  1407                           ;main.c: 94: TRISBbits.TRISB0 = 1;
  1408  06DE  1412               	bsf	18,0	;volatile
  1409                           
  1410                           ;main.c: 95: TRISBbits.TRISB3 = 1;
  1411  06DF  1592               	bsf	18,3	;volatile
  1412                           
  1413                           ;main.c: 96: TRISBbits.TRISB2 = 1;
  1414  06E0  1512               	bsf	18,2	;volatile
  1415                           
  1416                           ;main.c: 97: TRISBbits.TRISB1 = 1;
  1417  06E1  1492               	bsf	18,1	;volatile
  1418  06E2  0008               	return
  1419  06E3                     __end_of_system_init:	
  1420                           
  1421                           	psect	text2
  1422  070F                     __ptext2:	
  1423 ;; *************** function _display_update *****************
  1424 ;; Defined at:
  1425 ;;		line 45 in file "display.c"
  1426 ;; Parameters:    Size  Location     Type
  1427 ;;  segment         1    wreg     unsigned char 
  1428 ;; Auto vars:     Size  Location     Type
  1429 ;;  segment         1    2[COMMON] unsigned char 
  1430 ;; Return value:  Size  Location     Type
  1431 ;;                  1    wreg      void 
  1432 ;; Registers used:
  1433 ;;		wreg, fsr0l, fsr0h, fsr1l, fsr1h, status,2, status,0
  1434 ;; Tracked objects:
  1435 ;;		On entry : 0/0
  1436 ;;		On exit  : 0/0
  1437 ;;		Unchanged: 0/0
  1438 ;; Data sizes:     COMMON   BANK0   BANK1   BANK2   BANK3   BANK4   BANK5   BANK6   BANK7   BANK8   BANK9  BANK10  BANK1
      +1  BANK12
  1439 ;;      Params:         0       0       0       0       0       0       0       0       0       0       0       0       
      +0       0
  1440 ;;      Locals:         1       0       0       0       0       0       0       0       0       0       0       0       
      +0       0
  1441 ;;      Temps:          2       0       0       0       0       0       0       0       0       0       0       0       
      +0       0
  1442 ;;      Totals:         3       0       0       0       0       0       0       0       0       0       0       0       
      +0       0
  1443 ;;Total ram usage:        3 bytes
  1444 ;; Hardware stack levels used:    1
  1445 ;; This function calls:
  1446 ;;		Nothing
  1447 ;; This function is called by:
  1448 ;;		_main
  1449 ;; This function uses a non-reentrant model
  1450 ;;
  1451                           
  1452                           
  1453                           ;psect for function _display_update
  1454  070F                     _display_update:	
  1455                           
  1456                           ;incstack = 0
  1457                           ; Regs used in _display_update: [wreg-fsr1h+status,2+status,0]
  1458                           ;display_update@segment stored from wreg
  1459  070F  00F2               	movwf	display_update@segment
  1460                           
  1461                           ;display.c: 47: LATBbits.LATB7 = 1;
  1462  0710  0020               	movlb	0	; select bank0
  1463  0711  1797               	bsf	23,7	;volatile
  1464                           
  1465                           ;display.c: 48: LATBbits.LATB6 = 1;
  1466  0712  1717               	bsf	23,6	;volatile
  1467                           
  1468                           ;display.c: 49: LATBbits.LATB5 = 1;
  1469  0713  1697               	bsf	23,5	;volatile
  1470                           
  1471                           ;display.c: 50: LATBbits.LATB4 = 1;
  1472  0714  1617               	bsf	23,4	;volatile
  1473                           
  1474                           ;display.c: 52: LATC = characters[segment&0b11];
  1475  0715  0872               	movf	display_update@segment,w
  1476  0716  3903               	andlw	3
  1477  0717  3E2A               	addlw	(low (_characters| 0))& (0+255)
  1478  0718  0086               	movwf	6
  1479  0719  0187               	clrf	7
  1480  071A  0801               	movf	1,w
  1481  071B  0098               	movwf	24	;volatile
  1482                           
  1483                           ;display.c: 54: switch(segment&0b11)
  1484  071C  2F25               	goto	l673
  1485  071D                     l40:	
  1486                           ;display.c: 55: {
  1487                           ;display.c: 56: case 0:
  1488                           
  1489                           
  1490                           ;display.c: 57: LATBbits.LATB7 = 0;
  1491  071D  1397               	bcf	23,7	;volatile
  1492                           
  1493                           ;display.c: 58: break;
  1494  071E  0008               	return
  1495  071F                     l42:	
  1496                           ;display.c: 59: case 1:
  1497                           
  1498                           
  1499                           ;display.c: 60: LATBbits.LATB6 = 0;
  1500  071F  1317               	bcf	23,6	;volatile
  1501                           
  1502                           ;display.c: 61: break;
  1503  0720  0008               	return
  1504  0721                     l43:	
  1505                           ;display.c: 62: case 2:
  1506                           
  1507                           
  1508                           ;display.c: 63: LATBbits.LATB5 = 0;
  1509  0721  1297               	bcf	23,5	;volatile
  1510                           
  1511                           ;display.c: 64: break;
  1512  0722  0008               	return
  1513  0723                     l44:	
  1514                           ;display.c: 65: case 3:
  1515                           
  1516                           
  1517                           ;display.c: 66: LATBbits.LATB4 = 0;
  1518  0723  1217               	bcf	23,4	;volatile
  1519                           
  1520                           ;display.c: 68: }
  1521                           
  1522                           ;display.c: 67: break;
  1523  0724  0008               	return
  1524  0725                     l673:	
  1525  0725  0872               	movf	display_update@segment,w
  1526  0726  3903               	andlw	3
  1527  0727  00F0               	movwf	??_display_update
  1528  0728  01F1               	clrf	??_display_update+1
  1529                           
  1530                           ; Switch on 2 bytes has been partitioned into a top level switch of size 1, and 1 sub-sw
      +                          itches
  1531                           ; Switch size 1, requested type "space"
  1532                           ; Number of cases is 1, Range of values is 0 to 0
  1533                           ; switch strategies available:
  1534                           ; Name         Instructions Cycles
  1535                           ; simple_byte            4     3 (average)
  1536                           ; direct_byte            8     6 (fixed)
  1537                           ; jumptable            260     6 (fixed)
  1538                           ;	Chosen strategy is simple_byte
  1539  0729  0871               	movf	??_display_update+1,w
  1540  072A  3A00               	xorlw	0	; case 0
  1541  072B  1903               	skipnz
  1542  072C  2F2E               	goto	l713
  1543  072D  2F3C               	goto	l45
  1544  072E                     l713:	
  1545                           
  1546                           ; Switch size 1, requested type "space"
  1547                           ; Number of cases is 4, Range of values is 0 to 3
  1548                           ; switch strategies available:
  1549                           ; Name         Instructions Cycles
  1550                           ; simple_byte           13     7 (average)
  1551                           ; direct_byte           14     6 (fixed)
  1552                           ; jumptable            260     6 (fixed)
  1553                           ;	Chosen strategy is simple_byte
  1554  072E  0870               	movf	??_display_update,w
  1555  072F  3A00               	xorlw	0	; case 0
  1556  0730  1903               	skipnz
  1557  0731  2F1D               	goto	l40
  1558  0732  3A01               	xorlw	1	; case 1
  1559  0733  1903               	skipnz
  1560  0734  2F1F               	goto	l42
  1561  0735  3A03               	xorlw	3	; case 2
  1562  0736  1903               	skipnz
  1563  0737  2F21               	goto	l43
  1564  0738  3A01               	xorlw	1	; case 3
  1565  0739  1903               	skipnz
  1566  073A  2F23               	goto	l44
  1567  073B  2F3C               	goto	l45
  1568  073C                     l45:	
  1569  073C  0008               	return
  1570  073D                     __end_of_display_update:	
  1571                           
  1572                           	psect	text3
  1573  0771                     __ptext3:	
  1574 ;; *************** function _display_set *****************
  1575 ;; Defined at:
  1576 ;;		line 30 in file "display.c"
  1577 ;; Parameters:    Size  Location     Type
  1578 ;;  value           2    8[COMMON] unsigned int 
  1579 ;; Auto vars:     Size  Location     Type
  1580 ;;		None
  1581 ;; Return value:  Size  Location     Type
  1582 ;;                  1    wreg      void 
  1583 ;; Registers used:
  1584 ;;		wreg, fsr1l, fsr1h, status,2, status,0, pclath, cstack
  1585 ;; Tracked objects:
  1586 ;;		On entry : 0/0
  1587 ;;		On exit  : 0/0
  1588 ;;		Unchanged: 0/0
  1589 ;; Data sizes:     COMMON   BANK0   BANK1   BANK2   BANK3   BANK4   BANK5   BANK6   BANK7   BANK8   BANK9  BANK10  BANK1
      +1  BANK12
  1590 ;;      Params:         2       0       0       0       0       0       0       0       0       0       0       0       
      +0       0
  1591 ;;      Locals:         0       0       0       0       0       0       0       0       0       0       0       0       
      +0       0
  1592 ;;      Temps:          1       0       0       0       0       0       0       0       0       0       0       0       
      +0       0
  1593 ;;      Totals:         3       0       0       0       0       0       0       0       0       0       0       0       
      +0       0
  1594 ;;Total ram usage:        3 bytes
  1595 ;; Hardware stack levels used:    1
  1596 ;; Hardware stack levels required when called:    1
  1597 ;; This function calls:
  1598 ;;		___lwdiv
  1599 ;;		___lwmod
  1600 ;; This function is called by:
  1601 ;;		_main
  1602 ;; This function uses a non-reentrant model
  1603 ;;
  1604                           
  1605                           
  1606                           ;psect for function _display_set
  1607  0771                     _display_set:	
  1608                           
  1609                           ;display.c: 33: characters[3] = char_lookup[value%10];
  1610                           
  1611                           ;incstack = 0
  1612                           ; Regs used in _display_set: [wreg+fsr1l+fsr1h+status,2+status,0+pclath+cstack]
  1613  0771  300A               	movlw	10
  1614  0772  00F0               	movwf	___lwmod@divisor
  1615  0773  3000               	movlw	0
  1616  0774  00F1               	movwf	___lwmod@divisor+1
  1617  0775  0879               	movf	display_set@value+1,w
  1618  0776  00F3               	movwf	___lwmod@dividend+1
  1619  0777  0878               	movf	display_set@value,w
  1620  0778  00F2               	movwf	___lwmod@dividend
  1621  0779  3186  26E3  3187   	fcall	___lwmod
  1622  077C  0870               	movf	?___lwmod,w
  1623  077D  3E20               	addlw	(low (_char_lookup| 0))& (0+255)
  1624  077E  0086               	movwf	6
  1625  077F  0187               	clrf	7
  1626  0780  0801               	movf	1,w
  1627  0781  00FA               	movwf	??_display_set
  1628  0782  087A               	movf	??_display_set,w
  1629  0783  0020               	movlb	0	; select bank0
  1630  0784  00AD               	movwf	_characters+3
  1631                           
  1632                           ;display.c: 35: value /= 10;
  1633  0785  300A               	movlw	10
  1634  0786  00F0               	movwf	___lwdiv@divisor
  1635  0787  3000               	movlw	0
  1636  0788  00F1               	movwf	___lwdiv@divisor+1
  1637  0789  0879               	movf	display_set@value+1,w
  1638  078A  00F3               	movwf	___lwdiv@dividend+1
  1639  078B  0878               	movf	display_set@value,w
  1640  078C  00F2               	movwf	___lwdiv@dividend
  1641  078D  3187  273D  3187   	fcall	___lwdiv
  1642  0790  0871               	movf	?___lwdiv+1,w
  1643  0791  00F9               	movwf	display_set@value+1
  1644  0792  0870               	movf	?___lwdiv,w
  1645  0793  00F8               	movwf	display_set@value
  1646                           
  1647                           ;display.c: 36: characters[2] = char_lookup[value%10];
  1648  0794  300A               	movlw	10
  1649  0795  00F0               	movwf	___lwmod@divisor
  1650  0796  3000               	movlw	0
  1651  0797  00F1               	movwf	___lwmod@divisor+1
  1652  0798  0879               	movf	display_set@value+1,w
  1653  0799  00F3               	movwf	___lwmod@dividend+1
  1654  079A  0878               	movf	display_set@value,w
  1655  079B  00F2               	movwf	___lwmod@dividend
  1656  079C  3186  26E3  3187   	fcall	___lwmod
  1657  079F  0870               	movf	?___lwmod,w
  1658  07A0  3E20               	addlw	(low (_char_lookup| 0))& (0+255)
  1659  07A1  0086               	movwf	6
  1660  07A2  0187               	clrf	7
  1661  07A3  0801               	movf	1,w
  1662  07A4  00FA               	movwf	??_display_set
  1663  07A5  087A               	movf	??_display_set,w
  1664  07A6  0020               	movlb	0	; select bank0
  1665  07A7  00AC               	movwf	_characters+2
  1666                           
  1667                           ;display.c: 38: value /= 10;
  1668  07A8  300A               	movlw	10
  1669  07A9  00F0               	movwf	___lwdiv@divisor
  1670  07AA  3000               	movlw	0
  1671  07AB  00F1               	movwf	___lwdiv@divisor+1
  1672  07AC  0879               	movf	display_set@value+1,w
  1673  07AD  00F3               	movwf	___lwdiv@dividend+1
  1674  07AE  0878               	movf	display_set@value,w
  1675  07AF  00F2               	movwf	___lwdiv@dividend
  1676  07B0  3187  273D  3187   	fcall	___lwdiv
  1677  07B3  0871               	movf	?___lwdiv+1,w
  1678  07B4  00F9               	movwf	display_set@value+1
  1679  07B5  0870               	movf	?___lwdiv,w
  1680  07B6  00F8               	movwf	display_set@value
  1681                           
  1682                           ;display.c: 39: characters[1] = char_lookup[value%10];
  1683  07B7  300A               	movlw	10
  1684  07B8  00F0               	movwf	___lwmod@divisor
  1685  07B9  3000               	movlw	0
  1686  07BA  00F1               	movwf	___lwmod@divisor+1
  1687  07BB  0879               	movf	display_set@value+1,w
  1688  07BC  00F3               	movwf	___lwmod@dividend+1
  1689  07BD  0878               	movf	display_set@value,w
  1690  07BE  00F2               	movwf	___lwmod@dividend
  1691  07BF  3186  26E3  3187   	fcall	___lwmod
  1692  07C2  0870               	movf	?___lwmod,w
  1693  07C3  3E20               	addlw	(low (_char_lookup| 0))& (0+255)
  1694  07C4  0086               	movwf	6
  1695  07C5  0187               	clrf	7
  1696  07C6  0801               	movf	1,w
  1697  07C7  00FA               	movwf	??_display_set
  1698  07C8  087A               	movf	??_display_set,w
  1699  07C9  0020               	movlb	0	; select bank0
  1700  07CA  00AB               	movwf	_characters+1
  1701                           
  1702                           ;display.c: 41: value /= 10;
  1703  07CB  300A               	movlw	10
  1704  07CC  00F0               	movwf	___lwdiv@divisor
  1705  07CD  3000               	movlw	0
  1706  07CE  00F1               	movwf	___lwdiv@divisor+1
  1707  07CF  0879               	movf	display_set@value+1,w
  1708  07D0  00F3               	movwf	___lwdiv@dividend+1
  1709  07D1  0878               	movf	display_set@value,w
  1710  07D2  00F2               	movwf	___lwdiv@dividend
  1711  07D3  3187  273D  3187   	fcall	___lwdiv
  1712  07D6  0871               	movf	?___lwdiv+1,w
  1713  07D7  00F9               	movwf	display_set@value+1
  1714  07D8  0870               	movf	?___lwdiv,w
  1715  07D9  00F8               	movwf	display_set@value
  1716                           
  1717                           ;display.c: 42: characters[0] = char_lookup[value%10];
  1718  07DA  300A               	movlw	10
  1719  07DB  00F0               	movwf	___lwmod@divisor
  1720  07DC  3000               	movlw	0
  1721  07DD  00F1               	movwf	___lwmod@divisor+1
  1722  07DE  0879               	movf	display_set@value+1,w
  1723  07DF  00F3               	movwf	___lwmod@dividend+1
  1724  07E0  0878               	movf	display_set@value,w
  1725  07E1  00F2               	movwf	___lwmod@dividend
  1726  07E2  3186  26E3         	fcall	___lwmod
  1727  07E4  0870               	movf	?___lwmod,w
  1728  07E5  3E20               	addlw	(low (_char_lookup| 0))& (0+255)
  1729  07E6  0086               	movwf	6
  1730  07E7  0187               	clrf	7
  1731  07E8  0801               	movf	1,w
  1732  07E9  00FA               	movwf	??_display_set
  1733  07EA  087A               	movf	??_display_set,w
  1734  07EB  0020               	movlb	0	; select bank0
  1735  07EC  00AA               	movwf	_characters
  1736  07ED  0008               	return
  1737  07EE                     __end_of_display_set:	
  1738                           
  1739                           	psect	text4
  1740  06E3                     __ptext4:	
  1741 ;; *************** function ___lwmod *****************
  1742 ;; Defined at:
  1743 ;;		line 6 in file "C:\Program Files (x86)\Microchip\xc8\v1.44\sources\common\lwmod.c"
  1744 ;; Parameters:    Size  Location     Type
  1745 ;;  divisor         2    0[COMMON] unsigned int 
  1746 ;;  dividend        2    2[COMMON] unsigned int 
  1747 ;; Auto vars:     Size  Location     Type
  1748 ;;  counter         1    5[COMMON] unsigned char 
  1749 ;; Return value:  Size  Location     Type
  1750 ;;                  2    0[COMMON] unsigned int 
  1751 ;; Registers used:
  1752 ;;		wreg, status,2, status,0
  1753 ;; Tracked objects:
  1754 ;;		On entry : 0/0
  1755 ;;		On exit  : 0/0
  1756 ;;		Unchanged: 0/0
  1757 ;; Data sizes:     COMMON   BANK0   BANK1   BANK2   BANK3   BANK4   BANK5   BANK6   BANK7   BANK8   BANK9  BANK10  BANK1
      +1  BANK12
  1758 ;;      Params:         4       0       0       0       0       0       0       0       0       0       0       0       
      +0       0
  1759 ;;      Locals:         1       0       0       0       0       0       0       0       0       0       0       0       
      +0       0
  1760 ;;      Temps:          1       0       0       0       0       0       0       0       0       0       0       0       
      +0       0
  1761 ;;      Totals:         6       0       0       0       0       0       0       0       0       0       0       0       
      +0       0
  1762 ;;Total ram usage:        6 bytes
  1763 ;; Hardware stack levels used:    1
  1764 ;; This function calls:
  1765 ;;		Nothing
  1766 ;; This function is called by:
  1767 ;;		_display_set
  1768 ;; This function uses a non-reentrant model
  1769 ;;
  1770                           
  1771                           
  1772                           ;psect for function ___lwmod
  1773  06E3                     ___lwmod:	
  1774                           
  1775                           ;incstack = 0
  1776                           ; Regs used in ___lwmod: [wreg+status,2+status,0]
  1777  06E3  0870               	movf	___lwmod@divisor,w
  1778  06E4  0471               	iorwf	___lwmod@divisor+1,w
  1779  06E5  1903               	btfsc	3,2
  1780  06E6  2F0A               	goto	l653
  1781  06E7  01F5               	clrf	___lwmod@counter
  1782  06E8  0AF5               	incf	___lwmod@counter,f
  1783  06E9                     l643:	
  1784  06E9  1BF1               	btfsc	___lwmod@divisor+1,7
  1785  06EA  2EF5               	goto	l645
  1786  06EB  3001               	movlw	1
  1787  06EC                     u225:	
  1788  06EC  35F0               	lslf	___lwmod@divisor,f
  1789  06ED  0DF1               	rlf	___lwmod@divisor+1,f
  1790  06EE  0B89               	decfsz	9,f
  1791  06EF  2EEC               	goto	u225
  1792  06F0  3001               	movlw	1
  1793  06F1  00F4               	movwf	??___lwmod
  1794  06F2  0874               	movf	??___lwmod,w
  1795  06F3  07F5               	addwf	___lwmod@counter,f
  1796  06F4  2EE9               	goto	l643
  1797  06F5                     l645:	
  1798  06F5  0871               	movf	___lwmod@divisor+1,w
  1799  06F6  0273               	subwf	___lwmod@dividend+1,w
  1800  06F7  1D03               	skipz
  1801  06F8  2EFB               	goto	u245
  1802  06F9  0870               	movf	___lwmod@divisor,w
  1803  06FA  0272               	subwf	___lwmod@dividend,w
  1804  06FB                     u245:	
  1805  06FB  1C03               	skipc
  1806  06FC  2F01               	goto	l649
  1807  06FD  0870               	movf	___lwmod@divisor,w
  1808  06FE  02F2               	subwf	___lwmod@dividend,f
  1809  06FF  0871               	movf	___lwmod@divisor+1,w
  1810  0700  3BF3               	subwfb	___lwmod@dividend+1,f
  1811  0701                     l649:	
  1812  0701  3001               	movlw	1
  1813  0702                     u255:	
  1814  0702  36F1               	lsrf	___lwmod@divisor+1,f
  1815  0703  0CF0               	rrf	___lwmod@divisor,f
  1816  0704  0B89               	decfsz	9,f
  1817  0705  2F02               	goto	u255
  1818  0706  3001               	movlw	1
  1819  0707  02F5               	subwf	___lwmod@counter,f
  1820  0708  1D03               	btfss	3,2
  1821  0709  2EF5               	goto	l645
  1822  070A                     l653:	
  1823  070A  0873               	movf	___lwmod@dividend+1,w
  1824  070B  00F1               	movwf	?___lwmod+1
  1825  070C  0872               	movf	___lwmod@dividend,w
  1826  070D  00F0               	movwf	?___lwmod
  1827  070E  0008               	return
  1828  070F                     __end_of___lwmod:	
  1829                           
  1830                           	psect	text5
  1831  073D                     __ptext5:	
  1832 ;; *************** function ___lwdiv *****************
  1833 ;; Defined at:
  1834 ;;		line 6 in file "C:\Program Files (x86)\Microchip\xc8\v1.44\sources\common\lwdiv.c"
  1835 ;; Parameters:    Size  Location     Type
  1836 ;;  divisor         2    0[COMMON] unsigned int 
  1837 ;;  dividend        2    2[COMMON] unsigned int 
  1838 ;; Auto vars:     Size  Location     Type
  1839 ;;  quotient        2    5[COMMON] unsigned int 
  1840 ;;  counter         1    7[COMMON] unsigned char 
  1841 ;; Return value:  Size  Location     Type
  1842 ;;                  2    0[COMMON] unsigned int 
  1843 ;; Registers used:
  1844 ;;		wreg, status,2, status,0
  1845 ;; Tracked objects:
  1846 ;;		On entry : 0/0
  1847 ;;		On exit  : 0/0
  1848 ;;		Unchanged: 0/0
  1849 ;; Data sizes:     COMMON   BANK0   BANK1   BANK2   BANK3   BANK4   BANK5   BANK6   BANK7   BANK8   BANK9  BANK10  BANK1
      +1  BANK12
  1850 ;;      Params:         4       0       0       0       0       0       0       0       0       0       0       0       
      +0       0
  1851 ;;      Locals:         3       0       0       0       0       0       0       0       0       0       0       0       
      +0       0
  1852 ;;      Temps:          1       0       0       0       0       0       0       0       0       0       0       0       
      +0       0
  1853 ;;      Totals:         8       0       0       0       0       0       0       0       0       0       0       0       
      +0       0
  1854 ;;Total ram usage:        8 bytes
  1855 ;; Hardware stack levels used:    1
  1856 ;; This function calls:
  1857 ;;		Nothing
  1858 ;; This function is called by:
  1859 ;;		_display_set
  1860 ;; This function uses a non-reentrant model
  1861 ;;
  1862                           
  1863                           
  1864                           ;psect for function ___lwdiv
  1865  073D                     ___lwdiv:	
  1866                           
  1867                           ;incstack = 0
  1868                           ; Regs used in ___lwdiv: [wreg+status,2+status,0]
  1869  073D  01F5               	clrf	___lwdiv@quotient
  1870  073E  01F6               	clrf	___lwdiv@quotient+1
  1871  073F  0870               	movf	___lwdiv@divisor,w
  1872  0740  0471               	iorwf	___lwdiv@divisor+1,w
  1873  0741  1903               	btfsc	3,2
  1874  0742  2F6C               	goto	l631
  1875  0743  01F7               	clrf	___lwdiv@counter
  1876  0744  0AF7               	incf	___lwdiv@counter,f
  1877  0745                     l619:	
  1878  0745  1BF1               	btfsc	___lwdiv@divisor+1,7
  1879  0746  2F51               	goto	l621
  1880  0747  3001               	movlw	1
  1881  0748                     u155:	
  1882  0748  35F0               	lslf	___lwdiv@divisor,f
  1883  0749  0DF1               	rlf	___lwdiv@divisor+1,f
  1884  074A  0B89               	decfsz	9,f
  1885  074B  2F48               	goto	u155
  1886  074C  3001               	movlw	1
  1887  074D  00F4               	movwf	??___lwdiv
  1888  074E  0874               	movf	??___lwdiv,w
  1889  074F  07F7               	addwf	___lwdiv@counter,f
  1890  0750  2F45               	goto	l619
  1891  0751                     l621:	
  1892  0751  3001               	movlw	1
  1893  0752                     u175:	
  1894  0752  35F5               	lslf	___lwdiv@quotient,f
  1895  0753  0DF6               	rlf	___lwdiv@quotient+1,f
  1896  0754  0B89               	decfsz	9,f
  1897  0755  2F52               	goto	u175
  1898  0756  0871               	movf	___lwdiv@divisor+1,w
  1899  0757  0273               	subwf	___lwdiv@dividend+1,w
  1900  0758  1D03               	skipz
  1901  0759  2F5C               	goto	u185
  1902  075A  0870               	movf	___lwdiv@divisor,w
  1903  075B  0272               	subwf	___lwdiv@dividend,w
  1904  075C                     u185:	
  1905  075C  1C03               	skipc
  1906  075D  2F63               	goto	l627
  1907  075E  0870               	movf	___lwdiv@divisor,w
  1908  075F  02F2               	subwf	___lwdiv@dividend,f
  1909  0760  0871               	movf	___lwdiv@divisor+1,w
  1910  0761  3BF3               	subwfb	___lwdiv@dividend+1,f
  1911  0762  1475               	bsf	___lwdiv@quotient,0
  1912  0763                     l627:	
  1913  0763  3001               	movlw	1
  1914  0764                     u195:	
  1915  0764  36F1               	lsrf	___lwdiv@divisor+1,f
  1916  0765  0CF0               	rrf	___lwdiv@divisor,f
  1917  0766  0B89               	decfsz	9,f
  1918  0767  2F64               	goto	u195
  1919  0768  3001               	movlw	1
  1920  0769  02F7               	subwf	___lwdiv@counter,f
  1921  076A  1D03               	btfss	3,2
  1922  076B  2F51               	goto	l621
  1923  076C                     l631:	
  1924  076C  0876               	movf	___lwdiv@quotient+1,w
  1925  076D  00F1               	movwf	?___lwdiv+1
  1926  076E  0875               	movf	___lwdiv@quotient,w
  1927  076F  00F0               	movwf	?___lwdiv
  1928  0770  0008               	return
  1929  0771                     __end_of___lwdiv:	
  1930  007E                     btemp	set	126	;btemp
  1931  007E                     wtemp0	set	126


Data Sizes:
    Strings     0
    Constant    0
    Data        10
    BSS         4
    Persistent  0
    Stack       0

Auto Spaces:
    Space          Size  Autos    Used
    COMMON           14     13      13
    BANK0            80      0      14
    BANK1            80      0       0
    BANK2            80      0       0
    BANK3            80      0       0
    BANK4            80      0       0
    BANK5            80      0       0
    BANK6            80      0       0
    BANK7            80      0       0
    BANK8            80      0       0
    BANK9            80      0       0
    BANK10           80      0       0
    BANK11           80      0       0
    BANK12           48      0       0

Pointer List with Targets:

    None.

Critical Paths under _main in COMMON

    _main->_display_set
    _display_set->___lwdiv

Critical Paths under _main in BANK0

    None.

Critical Paths under _main in BANK1

    None.

Critical Paths under _main in BANK2

    None.

Critical Paths under _main in BANK3

    None.

Critical Paths under _main in BANK4

    None.

Critical Paths under _main in BANK5

    None.

Critical Paths under _main in BANK6

    None.

Critical Paths under _main in BANK7

    None.

Critical Paths under _main in BANK8

    None.

Critical Paths under _main in BANK9

    None.

Critical Paths under _main in BANK10

    None.

Critical Paths under _main in BANK11

    None.

Critical Paths under _main in BANK12

    None.

Call Graph Tables:

 ---------------------------------------------------------------------------------
 (Depth) Function   	        Calls       Base Space   Used Autos Params    Refs
 ---------------------------------------------------------------------------------
 (0) _main                                                 2     2      0    1340
                                             11 COMMON     2     2      0
                        _display_set
                     _display_update
                        _system_init
 ---------------------------------------------------------------------------------
 (1) _system_init                                          0     0      0       0
 ---------------------------------------------------------------------------------
 (1) _display_update                                       3     3      0      44
                                              0 COMMON     3     3      0
 ---------------------------------------------------------------------------------
 (1) _display_set                                          3     1      2    1273
                                              8 COMMON     3     1      2
                            ___lwdiv
                            ___lwmod
 ---------------------------------------------------------------------------------
 (2) ___lwmod                                              6     2      4     583
                                              0 COMMON     6     2      4
 ---------------------------------------------------------------------------------
 (2) ___lwdiv                                              8     4      4     480
                                              0 COMMON     8     4      4
 ---------------------------------------------------------------------------------
 Estimated maximum stack depth 2
 ---------------------------------------------------------------------------------

 Call Graph Graphs:

 _main (ROOT)
   _display_set
     ___lwdiv
     ___lwmod
   _display_update
   _system_init

 Address spaces:
Name               Size   Autos  Total    Cost      Usage
BIGRAM             3F0      0       0       0        0.0%
EEDATA             100      0       0       0        0.0%
NULL                 0      0       0       0        0.0%
CODE                 0      0       0       0        0.0%
BITCOMMON            E      0       0       1        0.0%
BITSFR0              0      0       0       1        0.0%
SFR0                 0      0       0       1        0.0%
COMMON               E      D       D       2       92.9%
BITSFR1              0      0       0       2        0.0%
SFR1                 0      0       0       2        0.0%
BITSFR2              0      0       0       3        0.0%
SFR2                 0      0       0       3        0.0%
STACK                0      0       0       3        0.0%
BITBANK0            50      0       0       4        0.0%
BITSFR3              0      0       0       4        0.0%
SFR3                 0      0       0       4        0.0%
BANK0               50      0       E       5       17.5%
BITSFR4              0      0       0       5        0.0%
SFR4                 0      0       0       5        0.0%
BITBANK1            50      0       0       6        0.0%
BITSFR5              0      0       0       6        0.0%
SFR5                 0      0       0       6        0.0%
BANK1               50      0       0       7        0.0%
BITSFR6              0      0       0       7        0.0%
SFR6                 0      0       0       7        0.0%
BITBANK2            50      0       0       8        0.0%
BITSFR7              0      0       0       8        0.0%
SFR7                 0      0       0       8        0.0%
BANK2               50      0       0       9        0.0%
BITSFR8              0      0       0       9        0.0%
SFR8                 0      0       0       9        0.0%
BITBANK3            50      0       0      10        0.0%
BITSFR9              0      0       0      10        0.0%
SFR9                 0      0       0      10        0.0%
BANK3               50      0       0      11        0.0%
BITSFR10             0      0       0      11        0.0%
SFR10                0      0       0      11        0.0%
BITBANK4            50      0       0      12        0.0%
BITSFR11             0      0       0      12        0.0%
SFR11                0      0       0      12        0.0%
BANK4               50      0       0      13        0.0%
BITSFR12             0      0       0      13        0.0%
SFR12                0      0       0      13        0.0%
BITBANK5            50      0       0      14        0.0%
BITSFR13             0      0       0      14        0.0%
SFR13                0      0       0      14        0.0%
BANK5               50      0       0      15        0.0%
BITSFR14             0      0       0      15        0.0%
SFR14                0      0       0      15        0.0%
BITBANK6            50      0       0      16        0.0%
BITSFR15             0      0       0      16        0.0%
SFR15                0      0       0      16        0.0%
BANK6               50      0       0      17        0.0%
BITSFR16             0      0       0      17        0.0%
SFR16                0      0       0      17        0.0%
BITBANK7            50      0       0      18        0.0%
BITSFR17             0      0       0      18        0.0%
SFR17                0      0       0      18        0.0%
BANK7               50      0       0      19        0.0%
BITSFR18             0      0       0      19        0.0%
SFR18                0      0       0      19        0.0%
BITSFR19             0      0       0      20        0.0%
SFR19                0      0       0      20        0.0%
ABS                  0      0      1B      20        0.0%
BITBANK8            50      0       0      21        0.0%
BITSFR20             0      0       0      21        0.0%
SFR20                0      0       0      21        0.0%
BANK8               50      0       0      22        0.0%
BITSFR21             0      0       0      22        0.0%
SFR21                0      0       0      22        0.0%
BITBANK9            50      0       0      23        0.0%
BITSFR22             0      0       0      23        0.0%
SFR22                0      0       0      23        0.0%
BANK9               50      0       0      24        0.0%
BITSFR23             0      0       0      24        0.0%
SFR23                0      0       0      24        0.0%
BITBANK10           50      0       0      25        0.0%
BITSFR24             0      0       0      25        0.0%
SFR24                0      0       0      25        0.0%
BANK10              50      0       0      26        0.0%
BITSFR25             0      0       0      26        0.0%
SFR25                0      0       0      26        0.0%
BITBANK11           50      0       0      27        0.0%
BITSFR26             0      0       0      27        0.0%
SFR26                0      0       0      27        0.0%
BANK11              50      0       0      28        0.0%
BITSFR27             0      0       0      28        0.0%
SFR27                0      0       0      28        0.0%
BITBANK12           30      0       0      29        0.0%
BITSFR28             0      0       0      29        0.0%
SFR28                0      0       0      29        0.0%
BANK12              30      0       0      30        0.0%
BITSFR29             0      0       0      30        0.0%
SFR29                0      0       0      30        0.0%
BITSFR30             0      0       0      31        0.0%
SFR30                0      0       0      31        0.0%
DATA                 0      0      1B      31        0.0%
BITSFR31             0      0       0      32        0.0%
SFR31                0      0       0      32        0.0%


Microchip Technology PIC Macro Assembler V1.44 build -154322312 
Symbol Table                                                                                   Sat Jul 21 23:52:41 2018

            __CFG_CP$OFF 0000                       l40 071D                       l42 071F  
                     l43 0721                       l44 0723                       l45 073C  
           ?_display_set 0078      __end_of_system_init 06E3              __CFG_LVP$ON 0000  
                    l621 0751                      l631 076C                      l713 072E  
                    l627 0763                      l619 0745                      l643 06E9  
                    l645 06F5                      l653 070A                      l649 0701  
                    l673 0725                      l689 06C2                      u225 06EC  
                    u155 0748                      u245 06FB                      u175 0752  
                    u255 0702                      u185 075C             __CFG_CPD$OFF 0000  
                    u195 0764   __end_of_display_update 073D             __CFG_BORV$HI 0000  
                    wreg 0009             __CFG_ZCD$OFF 0000                     _LATC 0018  
           __CFG_WRT$OFF 0000            __CFG_FCMEN$ON 0000                     _main 06B4  
                   fsr0h 0005                     fsr1h 0007                     fsr0l 0004  
                   indf1 0001                     fsr1l 0006                     btemp 007E  
          __CFG_BOREN$ON 0000                     start 0002            __CFG_MCLRE$ON 0000  
                  ?_main 0070            __CFG_WDTE$OFF 0000          __end_of___lwdiv 0771  
        __end_of___lwmod 070F          ?_display_update 0070            __CFG_PWRTE$ON 0000  
                  status 0003                    wtemp0 007E           __CFG_CSWEN$OFF 0000  
        __initialization 07EE              _system_init 06CB             __end_of_main 06CB  
                 ??_main 007B           __CFG_WDTCCS$SC 0000           __CFG_STVREN$ON 0000  
              ??___lwdiv 0074                ??___lwmod 0074     __size_of_display_set 007D  
__end_of__initialization 07FD          __CFG_FEXTOSC$HS 0000           __pcstackCOMMON 0070  
           __pidataBANK0 06AA               __pbssBANK0 002A               _characters 002A  
             __pmaintext 06B4         ??_display_update 0070             ?_system_init 0070  
   __CFG_SCANE$available 0000                  ___lwdiv 073D                  ___lwmod 06E3  
                __ptext1 06CB                  __ptext2 070F                  __ptext3 0771  
                __ptext4 06E3                  __ptext5 073D     end_of_initialization 07FD  
                init_ram 06A4                  initloop 06A5    display_update@segment 0072  
  __CFG_WDTCPS$WDTCPS_31 0000                _TRISAbits 0011                _TRISBbits 0012  
              _TRISCbits 0013            ??_display_set 007A      start_initialization 07EE  
      __CFG_RSTOSC$EXT4X 0000         __CFG_LPBOREN$OFF 0000              __pdataBANK0 0020  
   __size_of_system_init 0018      __end_of_display_set 07EE                ___latbits 0002  
            _char_lookup 0020         ___lwdiv@dividend 0072                 ?___lwdiv 0070  
               ?___lwmod 0070         __CFG_PPS1WAY$OFF 0000         ___lwdiv@quotient 0075  
               _LATAbits 0016                 _LATBbits 0017              _display_set 0771  
__size_of_display_update 002E         __size_of___lwdiv 0034         __size_of___lwmod 002C  
        ___lwdiv@divisor 0070          ___lwdiv@counter 0077            __size_of_main 0017  
   __CFG_WDTCWS$WDTCWS_7 0000                 main@cntr 007C         display_set@value 0078  
       ___lwmod@dividend 0072        __CFG_CLKOUTEN$OFF 0000            ??_system_init 0070  
        ___lwmod@divisor 0070          ___lwmod@counter 0075           _display_update 070F  
